target datalayout = "e-m:e-p270:32:32-p271:32:32-p272:64:64-i64:64-i128:128-f80:128-n8:16:32:64-S128"
target triple = "x86_64-pc-linux-gnu"

%struct.ident_t = type { i32, i32, i32, i32, ptr }
%"struct.std::_Vector_base.4" = type { %"struct.std::_Vector_base<ncnn::Mat, std::allocator<ncnn::Mat>>::_Vector_impl" }
%"struct.std::_Vector_base<ncnn::Mat, std::allocator<ncnn::Mat>>::_Vector_impl" = type { %"struct.std::_Vector_base<ncnn::Mat, std::allocator<ncnn::Mat>>::_Vector_impl_data" }
%"struct.std::_Vector_base<ncnn::Mat, std::allocator<ncnn::Mat>>::_Vector_impl_data" = type { ptr, ptr, ptr }
%"class.ncnn::Mat" = type { ptr, ptr, i64, i32, ptr, i32, i32, i32, i32, i32, i64 }

@1 = private unnamed_addr constant %struct.ident_t { i32 0, i32 514, i32 0, i32 22, ptr @0 }, align 8

; Function Attrs: noinline noreturn nounwind uwtable
define linkonce_odr hidden void @__clang_call_terminate(ptr noundef %0) #11 comdat {
  %2 = call ptr @__cxa_begin_catch(ptr %0) #10
  call void @_ZSt9terminatev() #14
  unreachable
}

; Function Attrs: alwaysinline mustprogress nounwind uwtable
define linkonce_odr hidden noundef ptr @_ZNK4ncnn3Mat3rowIKhEEPKT_i(ptr noundef nonnull align 8 dereferenceable(72) %0, i32 noundef %1) #7 comdat align 2 {
  %3 = alloca ptr, align 8
  %4 = alloca i32, align 4
  store ptr %0, ptr %3, align 8, !tbaa !40
  store i32 %1, ptr %4, align 4, !tbaa !37
  %5 = load ptr, ptr %3, align 8
  %6 = getelementptr inbounds nuw %"class.ncnn::Mat", ptr %5, i32 0, i32 0
  %7 = load ptr, ptr %6, align 8, !tbaa !67
  %8 = getelementptr inbounds nuw %"class.ncnn::Mat", ptr %5, i32 0, i32 6
  %9 = load i32, ptr %8, align 4, !tbaa !41
  %10 = sext i32 %9 to i64
  %11 = load i32, ptr %4, align 4, !tbaa !37
  %12 = sext i32 %11 to i64
  %13 = mul i64 %10, %12
  %14 = getelementptr inbounds nuw %"class.ncnn::Mat", ptr %5, i32 0, i32 2
  %15 = load i64, ptr %14, align 8, !tbaa !38
  %16 = mul i64 %13, %15
  %17 = getelementptr inbounds nuw i8, ptr %7, i64 %16
  ret ptr %17
}

; Function Attrs: mustprogress nounwind uwtable
define linkonce_odr hidden noundef nonnull align 8 dereferenceable(72) ptr @_ZNKSt6vectorIN4ncnn3MatESaIS1_EEixEm(ptr noundef nonnull align 8 dereferenceable(24) %0, i64 noundef %1) #5 comdat align 2 {
  %3 = alloca ptr, align 8
  %4 = alloca i64, align 8
  store ptr %0, ptr %3, align 8, !tbaa !30
  store i64 %1, ptr %4, align 8, !tbaa !39
  %5 = load ptr, ptr %3, align 8
  %6 = getelementptr inbounds nuw %"struct.std::_Vector_base.4", ptr %5, i32 0, i32 0
  %7 = getelementptr inbounds nuw %"struct.std::_Vector_base<ncnn::Mat, std::allocator<ncnn::Mat>>::_Vector_impl_data", ptr %6, i32 0, i32 0
  %8 = load ptr, ptr %7, align 8, !tbaa !65
  %9 = load i64, ptr %4, align 8, !tbaa !39
  %10 = getelementptr inbounds nuw %"class.ncnn::Mat", ptr %8, i64 %9
  ret ptr %10
}

; Function Attrs: mustprogress nounwind uwtable
define linkonce_odr hidden noundef i64 @_ZNKSt6vectorIN4ncnn3MatESaIS1_EE4sizeEv(ptr noundef nonnull align 8 dereferenceable(24) %0) #5 comdat align 2 {
  %2 = alloca ptr, align 8
  store ptr %0, ptr %2, align 8, !tbaa !30
  %3 = load ptr, ptr %2, align 8
  %4 = getelementptr inbounds nuw %"struct.std::_Vector_base.4", ptr %3, i32 0, i32 0
  %5 = getelementptr inbounds nuw %"struct.std::_Vector_base<ncnn::Mat, std::allocator<ncnn::Mat>>::_Vector_impl_data", ptr %4, i32 0, i32 1
  %6 = load ptr, ptr %5, align 8, !tbaa !66
  %7 = getelementptr inbounds nuw %"struct.std::_Vector_base.4", ptr %3, i32 0, i32 0
  %8 = getelementptr inbounds nuw %"struct.std::_Vector_base<ncnn::Mat, std::allocator<ncnn::Mat>>::_Vector_impl_data", ptr %7, i32 0, i32 0
  %9 = load ptr, ptr %8, align 8, !tbaa !65
  %10 = ptrtoint ptr %6 to i64
  %11 = ptrtoint ptr %9 to i64
  %12 = sub i64 %10, %11
  %13 = sdiv exact i64 %12, 72
  ret i64 %13
}

; Function Attrs: alwaysinline mustprogress nounwind uwtable
define linkonce_odr hidden noundef ptr @_ZN4ncnn3Mat3rowIhEEPT_i(ptr noundef nonnull align 8 dereferenceable(72) %0, i32 noundef %1) #7 comdat align 2 {
  %3 = alloca ptr, align 8
  %4 = alloca i32, align 4
  store ptr %0, ptr %3, align 8, !tbaa !40
  store i32 %1, ptr %4, align 4, !tbaa !37
  %5 = load ptr, ptr %3, align 8
  %6 = getelementptr inbounds nuw %"class.ncnn::Mat", ptr %5, i32 0, i32 0
  %7 = load ptr, ptr %6, align 8, !tbaa !67
  %8 = getelementptr inbounds nuw %"class.ncnn::Mat", ptr %5, i32 0, i32 6
  %9 = load i32, ptr %8, align 4, !tbaa !41
  %10 = sext i32 %9 to i64
  %11 = load i32, ptr %4, align 4, !tbaa !37
  %12 = sext i32 %11 to i64
  %13 = mul i64 %10, %12
  %14 = getelementptr inbounds nuw %"class.ncnn::Mat", ptr %5, i32 0, i32 2
  %15 = load i64, ptr %14, align 8, !tbaa !38
  %16 = mul i64 %13, %15
  %17 = getelementptr inbounds nuw i8, ptr %7, i64 %16
  ret ptr %17
}

; Function Attrs: alwaysinline norecurse nounwind uwtable
define internal void @_ZNK4ncnn6Concat7forwardERKSt6vectorINS_3MatESaIS2_EERS4_RKNS_6OptionE.omp_outlined(ptr noalias noundef %0, ptr noalias noundef %1, ptr noundef nonnull align 4 dereferenceable(4) %2, ptr noundef nonnull align 8 dereferenceable(72) %3, ptr noundef nonnull align 8 dereferenceable(24) %4, ptr noundef nonnull align 8 dereferenceable(8) %5) #9 personality ptr @__gxx_personality_v0 {
  %7 = alloca ptr, align 8
  %8 = alloca ptr, align 8
  %9 = alloca ptr, align 8
  %10 = alloca ptr, align 8
  %11 = alloca ptr, align 8
  %12 = alloca ptr, align 8
  %13 = alloca ptr, align 8
  %14 = alloca ptr, align 8
  %15 = alloca i32, align 4
  %16 = alloca i32, align 4
  %17 = alloca i32, align 4
  %18 = alloca i32, align 4
  %19 = alloca i32, align 4
  %20 = alloca i32, align 4
  %21 = alloca i32, align 4
  %22 = alloca i32, align 4
  %23 = alloca i32, align 4
  %24 = alloca ptr, align 8
  %25 = alloca i64, align 8
  %26 = alloca ptr, align 8
  %27 = alloca ptr, align 8
  store ptr %0, ptr %7, align 8, !tbaa !68
  store ptr %1, ptr %8, align 8, !tbaa !68
  store ptr %2, ptr %9, align 8, !tbaa !68
  store ptr %3, ptr %10, align 8, !tbaa !40
  store ptr %4, ptr %11, align 8, !tbaa !30
  store ptr %5, ptr %12, align 8, !tbaa !69
  %28 = load ptr, ptr %9, align 8, !tbaa !68
  %29 = load ptr, ptr %10, align 8, !tbaa !40
  %30 = load ptr, ptr %11, align 8, !tbaa !30
  %31 = load ptr, ptr %12, align 8, !tbaa !69
  store ptr %29, ptr %13, align 8
  store ptr %30, ptr %14, align 8
  call void @llvm.lifetime.start.p0(i64 4, ptr %15) #10
  call void @llvm.lifetime.start.p0(i64 4, ptr %16) #10
  %32 = load i32, ptr %28, align 4, !tbaa !37
  store i32 %32, ptr %16, align 4, !tbaa !37
  call void @llvm.lifetime.start.p0(i64 4, ptr %17) #10
  %33 = load i32, ptr %16, align 4, !tbaa !37
  %34 = sub nsw i32 %33, 0
  %35 = sdiv i32 %34, 1
  %36 = sub nsw i32 %35, 1
  store i32 %36, ptr %17, align 4, !tbaa !37
  call void @llvm.lifetime.start.p0(i64 4, ptr %18) #10
  store i32 0, ptr %18, align 4, !tbaa !37
  call void @llvm.lifetime.end.p0(i64 4, ptr %18) #10
  %37 = load i32, ptr %16, align 4, !tbaa !37
  %38 = icmp slt i32 0, %37
  br i1 %38, label %39, label %108

39:                                               ; preds = %6
  call void @llvm.lifetime.start.p0(i64 4, ptr %19) #10
  store i32 0, ptr %19, align 4, !tbaa !37
  call void @llvm.lifetime.start.p0(i64 4, ptr %20) #10
  %40 = load i32, ptr %17, align 4, !tbaa !37
  store i32 %40, ptr %20, align 4, !tbaa !37
  call void @llvm.lifetime.start.p0(i64 4, ptr %21) #10
  store i32 1, ptr %21, align 4, !tbaa !37
  call void @llvm.lifetime.start.p0(i64 4, ptr %22) #10
  store i32 0, ptr %22, align 4, !tbaa !37
  call void @llvm.lifetime.start.p0(i64 4, ptr %23) #10
  %41 = load ptr, ptr %7, align 8
  %42 = load i32, ptr %41, align 4, !tbaa !37
  call void @__kmpc_for_static_init_4(ptr @1, i32 %42, i32 34, ptr %22, ptr %19, ptr %20, ptr %21, i32 1, i32 1)
  %43 = load i32, ptr %20, align 4, !tbaa !37
  %44 = load i32, ptr %17, align 4, !tbaa !37
  %45 = icmp sgt i32 %43, %44
  br i1 %45, label %46, label %48

46:                                               ; preds = %39
  %47 = load i32, ptr %17, align 4, !tbaa !37
  br label %50

48:                                               ; preds = %39
  %49 = load i32, ptr %20, align 4, !tbaa !37
  br label %50

50:                                               ; preds = %48, %46
  %51 = phi i32 [ %47, %46 ], [ %49, %48 ]
  store i32 %51, ptr %20, align 4, !tbaa !37
  %52 = load i32, ptr %19, align 4, !tbaa !37
  store i32 %52, ptr %15, align 4, !tbaa !37
  br label %53

53:                                               ; preds = %101, %50
  %54 = load i32, ptr %15, align 4, !tbaa !37
  %55 = load i32, ptr %20, align 4, !tbaa !37
  %56 = icmp sle i32 %54, %55
  br i1 %56, label %58, label %57

57:                                               ; preds = %53
  br label %104

58:                                               ; preds = %53
  %59 = load i32, ptr %15, align 4, !tbaa !37
  %60 = mul nsw i32 %59, 1
  %61 = add nsw i32 0, %60
  store i32 %61, ptr %23, align 4, !tbaa !37
  call void @llvm.lifetime.start.p0(i64 8, ptr %24) #10
  %62 = load ptr, ptr %13, align 8, !tbaa !40
  %63 = load i32, ptr %23, align 4, !tbaa !37
  %64 = invoke noundef ptr @_ZN4ncnn3Mat3rowIhEEPT_i(ptr noundef nonnull align 8 dereferenceable(72) %62, i32 noundef %63)
          to label %65 unwind label %109

65:                                               ; preds = %58
  store ptr %64, ptr %24, align 8, !tbaa !46
  call void @llvm.lifetime.start.p0(i64 8, ptr %25) #10
  store i64 0, ptr %25, align 8, !tbaa !39
  br label %66

66:                                               ; preds = %96, %65
  %67 = load i64, ptr %25, align 8, !tbaa !39
  %68 = load ptr, ptr %14, align 8, !tbaa !30
  %69 = call noundef i64 @_ZNKSt6vectorIN4ncnn3MatESaIS1_EE4sizeEv(ptr noundef nonnull align 8 dereferenceable(24) %68) #10
  %70 = icmp ult i64 %67, %69
  br i1 %70, label %72, label %71

71:                                               ; preds = %66
  call void @llvm.lifetime.end.p0(i64 8, ptr %25) #10
  br label %99

72:                                               ; preds = %66
  call void @llvm.lifetime.start.p0(i64 8, ptr %26) #10
  %73 = load ptr, ptr %14, align 8, !tbaa !30
  %74 = load i64, ptr %25, align 8, !tbaa !39
  %75 = call noundef nonnull align 8 dereferenceable(72) ptr @_ZNKSt6vectorIN4ncnn3MatESaIS1_EEixEm(ptr noundef nonnull align 8 dereferenceable(24) %73, i64 noundef %74) #10
  store ptr %75, ptr %26, align 8, !tbaa !40
  call void @llvm.lifetime.start.p0(i64 8, ptr %27) #10
  %76 = load ptr, ptr %26, align 8, !tbaa !40
  %77 = load i32, ptr %23, align 4, !tbaa !37
  %78 = invoke noundef ptr @_ZNK4ncnn3Mat3rowIKhEEPKT_i(ptr noundef nonnull align 8 dereferenceable(72) %76, i32 noundef %77)
          to label %79 unwind label %109

79:                                               ; preds = %72
  store ptr %78, ptr %27, align 8, !tbaa !46
  %80 = load ptr, ptr %24, align 8, !tbaa !46
  %81 = load ptr, ptr %27, align 8, !tbaa !46
  %82 = load ptr, ptr %26, align 8, !tbaa !40
  %83 = getelementptr inbounds nuw %"class.ncnn::Mat", ptr %82, i32 0, i32 6
  %84 = load i32, ptr %83, align 4, !tbaa !41
  %85 = sext i32 %84 to i64
  %86 = load i64, ptr %31, align 8, !tbaa !39
  %87 = mul i64 %85, %86
  call void @llvm.memcpy.p0.p0.i64(ptr align 1 %80, ptr align 1 %81, i64 %87, i1 false)
  %88 = load ptr, ptr %26, align 8, !tbaa !40
  %89 = getelementptr inbounds nuw %"class.ncnn::Mat", ptr %88, i32 0, i32 6
  %90 = load i32, ptr %89, align 4, !tbaa !41
  %91 = sext i32 %90 to i64
  %92 = load i64, ptr %31, align 8, !tbaa !39
  %93 = mul i64 %91, %92
  %94 = load ptr, ptr %24, align 8, !tbaa !46
  %95 = getelementptr inbounds nuw i8, ptr %94, i64 %93
  store ptr %95, ptr %24, align 8, !tbaa !46
  call void @llvm.lifetime.end.p0(i64 8, ptr %27) #10
  call void @llvm.lifetime.end.p0(i64 8, ptr %26) #10
  br label %96

96:                                               ; preds = %79
  %97 = load i64, ptr %25, align 8, !tbaa !39
  %98 = add i64 %97, 1
  store i64 %98, ptr %25, align 8, !tbaa !39
  br label %66, !llvm.loop !71

99:                                               ; preds = %71
  call void @llvm.lifetime.end.p0(i64 8, ptr %24) #10
  br label %100

100:                                              ; preds = %99
  br label %101

101:                                              ; preds = %100
  %102 = load i32, ptr %15, align 4, !tbaa !37
  %103 = add nsw i32 %102, 1
  store i32 %103, ptr %15, align 4, !tbaa !37
  br label %53

104:                                              ; preds = %57
  br label %105

105:                                              ; preds = %104
  %106 = load ptr, ptr %7, align 8
  %107 = load i32, ptr %106, align 4, !tbaa !37
  call void @__kmpc_for_static_fini(ptr @1, i32 %107)
  call void @llvm.lifetime.end.p0(i64 4, ptr %23) #10
  call void @llvm.lifetime.end.p0(i64 4, ptr %22) #10
  call void @llvm.lifetime.end.p0(i64 4, ptr %21) #10
  call void @llvm.lifetime.end.p0(i64 4, ptr %20) #10
  call void @llvm.lifetime.end.p0(i64 4, ptr %19) #10
  br label %108

108:                                              ; preds = %105, %6
  call void @llvm.lifetime.end.p0(i64 4, ptr %17) #10
  call void @llvm.lifetime.end.p0(i64 4, ptr %16) #10
  call void @llvm.lifetime.end.p0(i64 4, ptr %15) #10
  ret void

109:                                              ; preds = %72, %58
  %110 = landingpad { ptr, i32 }
          catch ptr null
  %111 = extractvalue { ptr, i32 } %110, 0
  call void @__clang_call_terminate(ptr %111) #14
  unreachable
}