; Function Attrs: alwaysinline norecurse nounwind uwtable
define internal void @_ZNK4ncnn6Concat7forwardERKSt6vectorINS_3MatESaIS2_EERS4_RKNS_6OptionE.omp_outlined(ptr noalias noundef readonly captures(none) %0, ptr noalias readnone captures(none) %1, ptr noundef nonnull readonly align 4 captures(none) dereferenceable(4) %2, ptr noundef nonnull readonly align 8 captures(none) dereferenceable(72) %3, ptr noundef nonnull readonly align 8 captures(none) dereferenceable(24) %4, ptr noundef nonnull readonly align 8 captures(none) dereferenceable(8) %5) #6 personality ptr @__gxx_personality_v0 {
  %7 = alloca i32, align 4
  %8 = alloca i32, align 4
  %9 = alloca i32, align 4
  %10 = alloca i32, align 4
  %11 = load i32, ptr %2, align 4, !tbaa !45
  %12 = icmp sgt i32 %11, 0
  br i1 %12, label %13, label %64

13:                                               ; preds = %6
  %14 = add nsw i32 %11, -1
  call void @llvm.lifetime.start.p0(i64 4, ptr nonnull %7) #7
  store i32 0, ptr %7, align 4, !tbaa !45
  call void @llvm.lifetime.start.p0(i64 4, ptr nonnull %8) #7
  store i32 %14, ptr %8, align 4, !tbaa !45
  call void @llvm.lifetime.start.p0(i64 4, ptr nonnull %9) #7
  store i32 1, ptr %9, align 4, !tbaa !45
  call void @llvm.lifetime.start.p0(i64 4, ptr nonnull %10) #7
  store i32 0, ptr %10, align 4, !tbaa !45
  %15 = load i32, ptr %0, align 4, !tbaa !45
  call void @__kmpc_for_static_init_4(ptr nonnull @1, i32 %15, i32 34, ptr nonnull %10, ptr nonnull %7, ptr nonnull %8, ptr nonnull %9, i32 1, i32 1)
  %16 = load i32, ptr %8, align 4, !tbaa !45
  %17 = call i32 @llvm.smin.i32(i32 %16, i32 %14)
  store i32 %17, ptr %8, align 4, !tbaa !45
  %18 = load i32, ptr %7, align 4, !tbaa !45
  %.not31 = icmp sgt i32 %18, %17
  br i1 %.not31, label %._crit_edge35, label %.lr.ph34

.lr.ph34:                                         ; preds = %13
  %19 = getelementptr inbounds nuw i8, ptr %3, i64 44
  %20 = getelementptr inbounds nuw i8, ptr %3, i64 16
  %21 = getelementptr inbounds nuw i8, ptr %4, i64 8
  %22 = sext i32 %18 to i64
  %.pre = load ptr, ptr %21, align 8, !tbaa !32
  %.pre38 = load ptr, ptr %4, align 8, !tbaa !26
  br label %23

23:                                               ; preds = %.lr.ph34, %._crit_edge
  %24 = phi i32 [ %17, %.lr.ph34 ], [ %34, %._crit_edge ]
  %25 = phi ptr [ %.pre38, %.lr.ph34 ], [ %35, %._crit_edge ]
  %26 = phi ptr [ %.pre, %.lr.ph34 ], [ %36, %._crit_edge ]
  %indvars.iv = phi i64 [ %22, %.lr.ph34 ], [ %indvars.iv.next, %._crit_edge ]
  %.not36 = icmp eq ptr %26, %25
  br i1 %.not36, label %._crit_edge, label %.lr.ph.preheader

.lr.ph.preheader:                                 ; preds = %23
  %27 = load ptr, ptr %3, align 8, !tbaa !35
  %28 = load i32, ptr %19, align 4, !tbaa !38
  %29 = sext i32 %28 to i64
  %30 = mul nsw i64 %indvars.iv, %29
  %31 = load i64, ptr %20, align 8, !tbaa !30
  %32 = mul i64 %30, %31
  %33 = getelementptr inbounds nuw i8, ptr %27, i64 %32
  %.pre39 = load i64, ptr %5, align 8, !tbaa !31
  br label %.lr.ph

._crit_edge.loopexit:                             ; preds = %.lr.ph
  %.pre40 = load i32, ptr %8, align 4, !tbaa !45
  br label %._crit_edge

._crit_edge:                                      ; preds = %._crit_edge.loopexit, %23
  %34 = phi i32 [ %.pre40, %._crit_edge.loopexit ], [ %24, %23 ]
  %35 = phi ptr [ %58, %._crit_edge.loopexit ], [ %25, %23 ]
  %36 = phi ptr [ %57, %._crit_edge.loopexit ], [ %25, %23 ]
  %indvars.iv.next = add nsw i64 %indvars.iv, 1
  %37 = sext i32 %34 to i64
  %.not.not = icmp slt i64 %indvars.iv, %37
  br i1 %.not.not, label %23, label %._crit_edge35

.lr.ph:                                           ; preds = %.lr.ph.preheader, %.lr.ph
  %38 = phi i64 [ %53, %.lr.ph ], [ %.pre39, %.lr.ph.preheader ]
  %39 = phi ptr [ %58, %.lr.ph ], [ %25, %.lr.ph.preheader ]
  %.02730 = phi ptr [ %55, %.lr.ph ], [ %33, %.lr.ph.preheader ]
  %.02829 = phi i64 [ %56, %.lr.ph ], [ 0, %.lr.ph.preheader ]
  %40 = getelementptr inbounds nuw %"class.ncnn::Mat", ptr %39, i64 %.02829
  %41 = load ptr, ptr %40, align 8, !tbaa !35
  %42 = getelementptr inbounds nuw i8, ptr %40, i64 44
  %43 = load i32, ptr %42, align 4, !tbaa !38
  %44 = sext i32 %43 to i64
  %45 = mul nsw i64 %indvars.iv, %44
  %46 = getelementptr inbounds nuw i8, ptr %40, i64 16
  %47 = load i64, ptr %46, align 8, !tbaa !30
  %48 = mul i64 %45, %47
  %49 = getelementptr inbounds nuw i8, ptr %41, i64 %48
  %50 = mul i64 %38, %44
  call void @llvm.memcpy.p0.p0.i64(ptr align 1 %.02730, ptr align 1 %49, i64 %50, i1 false)
  %51 = load i32, ptr %42, align 4, !tbaa !38
  %52 = sext i32 %51 to i64
  %53 = load i64, ptr %5, align 8, !tbaa !31
  %54 = mul i64 %53, %52
  %55 = getelementptr inbounds nuw i8, ptr %.02730, i64 %54
  %56 = add nuw i64 %.02829, 1
  %57 = load ptr, ptr %21, align 8, !tbaa !32
  %58 = load ptr, ptr %4, align 8, !tbaa !26
  %59 = ptrtoint ptr %57 to i64
  %60 = ptrtoint ptr %58 to i64
  %61 = sub i64 %59, %60
  %62 = sdiv exact i64 %61, 72
  %63 = icmp ult i64 %56, %62
  br i1 %63, label %.lr.ph, label %._crit_edge.loopexit, !llvm.loop !61

._crit_edge35:                                    ; preds = %._crit_edge, %13
  call void @__kmpc_for_static_fini(ptr nonnull @1, i32 %15)
  call void @llvm.lifetime.end.p0(i64 4, ptr nonnull %10) #7
  call void @llvm.lifetime.end.p0(i64 4, ptr nonnull %9) #7
  call void @llvm.lifetime.end.p0(i64 4, ptr nonnull %8) #7
  call void @llvm.lifetime.end.p0(i64 4, ptr nonnull %7) #7
  br label %64

64:                                               ; preds = %._crit_edge35, %6
  ret void
}